target datalayout = "e-m:e-p270:32:32-p271:32:32-p272:64:64-i64:64-i128:128-f80:128-n8:16:32:64-S128"
target triple = "x86_64-pc-linux-gnu"

%class.dtNavMeshQuery = type { ptr, %"struct.dtNavMeshQuery::dtQueryData", ptr, ptr, ptr }
%"struct.dtNavMeshQuery::dtQueryData" = type { i32, ptr, float, i32, i32, [3 x float], [3 x float], ptr, i32, float }
%class.dtNodePool = type <{ ptr, ptr, ptr, i32, i32, i32, [4 x i8] }>
%class.dtNodeQueue = type { ptr, i32, i32 }

; Function Attrs: mustprogress nounwind uwtable
define linkonce_odr void @_ZN11dtNodeQueue5clearEv(ptr noundef nonnull align 8 dereferenceable(16) %0) #0 comdat align 2 {
  %2 = alloca ptr, align 8
  store ptr %0, ptr %2, align 8
  %3 = load ptr, ptr %2, align 8
  %4 = getelementptr inbounds %class.dtNodeQueue, ptr %3, i32 0, i32 2
  store i32 0, ptr %4, align 4
  ret void
}

; Function Attrs: mustprogress nounwind uwtable
define linkonce_odr noundef i32 @_ZNK11dtNodeQueue11getCapacityEv(ptr noundef nonnull align 8 dereferenceable(16) %0) #0 comdat align 2 {
  %2 = alloca ptr, align 8
  store ptr %0, ptr %2, align 8
  %3 = load ptr, ptr %2, align 8
  %4 = getelementptr inbounds %class.dtNodeQueue, ptr %3, i32 0, i32 1
  %5 = load i32, ptr %4, align 8
  ret i32 %5
}

; Function Attrs: mustprogress nounwind uwtable
define linkonce_odr noundef i32 @_Z10dtNextPow2j(i32 noundef %0) #0 comdat {
  %2 = alloca i32, align 4
  store i32 %0, ptr %2, align 4
  %3 = load i32, ptr %2, align 4
  %4 = add i32 %3, -1
  store i32 %4, ptr %2, align 4
  %5 = load i32, ptr %2, align 4
  %6 = lshr i32 %5, 1
  %7 = load i32, ptr %2, align 4
  %8 = or i32 %7, %6
  store i32 %8, ptr %2, align 4
  %9 = load i32, ptr %2, align 4
  %10 = lshr i32 %9, 2
  %11 = load i32, ptr %2, align 4
  %12 = or i32 %11, %10
  store i32 %12, ptr %2, align 4
  %13 = load i32, ptr %2, align 4
  %14 = lshr i32 %13, 4
  %15 = load i32, ptr %2, align 4
  %16 = or i32 %15, %14
  store i32 %16, ptr %2, align 4
  %17 = load i32, ptr %2, align 4
  %18 = lshr i32 %17, 8
  %19 = load i32, ptr %2, align 4
  %20 = or i32 %19, %18
  store i32 %20, ptr %2, align 4
  %21 = load i32, ptr %2, align 4
  %22 = lshr i32 %21, 16
  %23 = load i32, ptr %2, align 4
  %24 = or i32 %23, %22
  store i32 %24, ptr %2, align 4
  %25 = load i32, ptr %2, align 4
  %26 = add i32 %25, 1
  store i32 %26, ptr %2, align 4
  %27 = load i32, ptr %2, align 4
  ret i32 %27
}

; Function Attrs: mustprogress nounwind uwtable
define linkonce_odr noundef i32 @_ZNK10dtNodePool11getMaxNodesEv(ptr noundef nonnull align 8 dereferenceable(36) %0) #0 comdat align 2 {
  %2 = alloca ptr, align 8
  store ptr %0, ptr %2, align 8
  %3 = load ptr, ptr %2, align 8
  %4 = getelementptr inbounds %class.dtNodePool, ptr %3, i32 0, i32 3
  %5 = load i32, ptr %4, align 8
  ret i32 %5
}

; Function Attrs: mustprogress uwtable
define noundef i32 @_ZN14dtNavMeshQuery4initEPK9dtNavMeshi(ptr noundef nonnull align 8 dereferenceable(104) %0, ptr noundef %1, i32 noundef %2) #1 align 2 {
  %4 = alloca i32, align 4
  %5 = alloca ptr, align 8
  %6 = alloca ptr, align 8
  %7 = alloca i32, align 4
  store ptr %0, ptr %5, align 8
  store ptr %1, ptr %6, align 8
  store i32 %2, ptr %7, align 4
  %8 = load ptr, ptr %5, align 8
  %9 = load i32, ptr %7, align 4
  %10 = icmp sgt i32 %9, 65535
  br i1 %10, label %14, label %11

11:                                               ; preds = %3
  %12 = load i32, ptr %7, align 4
  %13 = icmp sgt i32 %12, 16777215
  br i1 %13, label %14, label %15

14:                                               ; preds = %11, %3
  store i32 -2147483640, ptr %4, align 4
  br label %100

15:                                               ; preds = %11
  %16 = load ptr, ptr %6, align 8
  %17 = getelementptr inbounds %class.dtNavMeshQuery, ptr %8, i32 0, i32 0
  store ptr %16, ptr %17, align 8
  %18 = getelementptr inbounds %class.dtNavMeshQuery, ptr %8, i32 0, i32 3
  %19 = load ptr, ptr %18, align 8
  %20 = icmp ne ptr %19, null
  br i1 %20, label %21, label %27

21:                                               ; preds = %15
  %22 = getelementptr inbounds %class.dtNavMeshQuery, ptr %8, i32 0, i32 3
  %23 = load ptr, ptr %22, align 8
  %24 = call noundef i32 @_ZNK10dtNodePool11getMaxNodesEv(ptr noundef nonnull align 8 dereferenceable(36) %23)
  %25 = load i32, ptr %7, align 4
  %26 = icmp slt i32 %24, %25
  br i1 %26, label %27, label %49

27:                                               ; preds = %21, %15
  %28 = getelementptr inbounds %class.dtNavMeshQuery, ptr %8, i32 0, i32 3
  %29 = load ptr, ptr %28, align 8
  %30 = icmp ne ptr %29, null
  br i1 %30, label %31, label %37

31:                                               ; preds = %27
  %32 = getelementptr inbounds %class.dtNavMeshQuery, ptr %8, i32 0, i32 3
  %33 = load ptr, ptr %32, align 8
  call void @_ZN10dtNodePoolD1Ev(ptr noundef nonnull align 8 dereferenceable(36) %33) #9
  %34 = getelementptr inbounds %class.dtNavMeshQuery, ptr %8, i32 0, i32 3
  %35 = load ptr, ptr %34, align 8
  call void @_Z6dtFreePv(ptr noundef %35)
  %36 = getelementptr inbounds %class.dtNavMeshQuery, ptr %8, i32 0, i32 3
  store ptr null, ptr %36, align 8
  br label %37

37:                                               ; preds = %31, %27
  %38 = call noundef ptr @_Z7dtAllocm11dtAllocHint(i64 noundef 40, i32 noundef 0)
  %39 = load i32, ptr %7, align 4
  %40 = load i32, ptr %7, align 4
  %41 = sdiv i32 %40, 4
  %42 = call noundef i32 @_Z10dtNextPow2j(i32 noundef %41)
  call void @_ZN10dtNodePoolC1Eii(ptr noundef nonnull align 8 dereferenceable(36) %38, i32 noundef %39, i32 noundef %42)
  %43 = getelementptr inbounds %class.dtNavMeshQuery, ptr %8, i32 0, i32 3
  store ptr %38, ptr %43, align 8
  %44 = getelementptr inbounds %class.dtNavMeshQuery, ptr %8, i32 0, i32 3
  %45 = load ptr, ptr %44, align 8
  %46 = icmp ne ptr %45, null
  br i1 %46, label %48, label %47

47:                                               ; preds = %37
  store i32 -2147483644, ptr %4, align 4
  br label %100

48:                                               ; preds = %37
  br label %52

49:                                               ; preds = %21
  %50 = getelementptr inbounds %class.dtNavMeshQuery, ptr %8, i32 0, i32 3
  %51 = load ptr, ptr %50, align 8
  call void @_ZN10dtNodePool5clearEv(ptr noundef nonnull align 8 dereferenceable(36) %51)
  br label %52

52:                                               ; preds = %49, %48
  %53 = getelementptr inbounds %class.dtNavMeshQuery, ptr %8, i32 0, i32 2
  %54 = load ptr, ptr %53, align 8
  %55 = icmp ne ptr %54, null
  br i1 %55, label %64, label %56

56:                                               ; preds = %52
  %57 = call noundef ptr @_Z7dtAllocm11dtAllocHint(i64 noundef 40, i32 noundef 0)
  call void @_ZN10dtNodePoolC1Eii(ptr noundef nonnull align 8 dereferenceable(36) %57, i32 noundef 64, i32 noundef 32)
  %58 = getelementptr inbounds %class.dtNavMeshQuery, ptr %8, i32 0, i32 2
  store ptr %57, ptr %58, align 8
  %59 = getelementptr inbounds %class.dtNavMeshQuery, ptr %8, i32 0, i32 2
  %60 = load ptr, ptr %59, align 8
  %61 = icmp ne ptr %60, null
  br i1 %61, label %63, label %62

62:                                               ; preds = %56
  store i32 -2147483644, ptr %4, align 4
  br label %100

63:                                               ; preds = %56
  br label %67

64:                                               ; preds = %52
  %65 = getelementptr inbounds %class.dtNavMeshQuery, ptr %8, i32 0, i32 2
  %66 = load ptr, ptr %65, align 8
  call void @_ZN10dtNodePool5clearEv(ptr noundef nonnull align 8 dereferenceable(36) %66)
  br label %67

67:                                               ; preds = %64, %63
  %68 = getelementptr inbounds %class.dtNavMeshQuery, ptr %8, i32 0, i32 4
  %69 = load ptr, ptr %68, align 8
  %70 = icmp ne ptr %69, null
  br i1 %70, label %71, label %77

71:                                               ; preds = %67
  %72 = getelementptr inbounds %class.dtNavMeshQuery, ptr %8, i32 0, i32 4
  %73 = load ptr, ptr %72, align 8
  %74 = call noundef i32 @_ZNK11dtNodeQueue11getCapacityEv(ptr noundef nonnull align 8 dereferenceable(16) %73)
  %75 = load i32, ptr %7, align 4
  %76 = icmp slt i32 %74, %75
  br i1 %76, label %77, label %96

77:                                               ; preds = %71, %67
  %78 = getelementptr inbounds %class.dtNavMeshQuery, ptr %8, i32 0, i32 4
  %79 = load ptr, ptr %78, align 8
  %80 = icmp ne ptr %79, null
  br i1 %80, label %81, label %87

81:                                               ; preds = %77
  %82 = getelementptr inbounds %class.dtNavMeshQuery, ptr %8, i32 0, i32 4
  %83 = load ptr, ptr %82, align 8
  call void @_ZN11dtNodeQueueD1Ev(ptr noundef nonnull align 8 dereferenceable(16) %83) #9
  %84 = getelementptr inbounds %class.dtNavMeshQuery, ptr %8, i32 0, i32 4
  %85 = load ptr, ptr %84, align 8
  call void @_Z6dtFreePv(ptr noundef %85)
  %86 = getelementptr inbounds %class.dtNavMeshQuery, ptr %8, i32 0, i32 4
  store ptr null, ptr %86, align 8
  br label %87

87:                                               ; preds = %81, %77
  %88 = call noundef ptr @_Z7dtAllocm11dtAllocHint(i64 noundef 16, i32 noundef 0)
  %89 = load i32, ptr %7, align 4
  call void @_ZN11dtNodeQueueC1Ei(ptr noundef nonnull align 8 dereferenceable(16) %88, i32 noundef %89)
  %90 = getelementptr inbounds %class.dtNavMeshQuery, ptr %8, i32 0, i32 4
  store ptr %88, ptr %90, align 8
  %91 = getelementptr inbounds %class.dtNavMeshQuery, ptr %8, i32 0, i32 4
  %92 = load ptr, ptr %91, align 8
  %93 = icmp ne ptr %92, null
  br i1 %93, label %95, label %94

94:                                               ; preds = %87
  store i32 -2147483644, ptr %4, align 4
  br label %100

95:                                               ; preds = %87
  br label %99

96:                                               ; preds = %71
  %97 = getelementptr inbounds %class.dtNavMeshQuery, ptr %8, i32 0, i32 4
  %98 = load ptr, ptr %97, align 8
  call void @_ZN11dtNodeQueue5clearEv(ptr noundef nonnull align 8 dereferenceable(16) %98)
  br label %99

99:                                               ; preds = %96, %95
  store i32 1073741824, ptr %4, align 4
  br label %100

100:                                              ; preds = %99, %94, %62, %47, %14
  %101 = load i32, ptr %4, align 4
  ret i32 %101
}