; Function Attrs: mustprogress uwtable
define noundef i32 @_ZN14dtNavMeshQuery4initEPK9dtNavMeshi(ptr nocapture noundef nonnull align 8 dereferenceable(104) %0, ptr noundef %1, i32 noundef %2) local_unnamed_addr #1 align 2 {
  %4 = icmp sgt i32 %2, 65535
  br i1 %4, label %47, label %5

5:                                                ; preds = %3
  store ptr %1, ptr %0, align 8
  %6 = getelementptr inbounds i8, ptr %0, i64 88
  %7 = load ptr, ptr %6, align 8
  %.not = icmp eq ptr %7, null
  br i1 %.not, label %.thread, label %8

8:                                                ; preds = %5
  %9 = getelementptr inbounds i8, ptr %7, i64 24
  %10 = load i32, ptr %9, align 8
  %11 = icmp slt i32 %10, %2
  br i1 %11, label %12, label %28

12:                                               ; preds = %8
  tail call void @_ZN10dtNodePoolD1Ev(ptr noundef nonnull align 8 dereferenceable(36) %7) #20
  %13 = load ptr, ptr %6, align 8
  tail call void @_Z6dtFreePv(ptr noundef %13)
  store ptr null, ptr %6, align 8
  br label %.thread

.thread:                                          ; preds = %5, %12
  %14 = tail call noundef ptr @_Z7dtAllocm11dtAllocHint(i64 noundef 40, i32 noundef 0)
  %15 = sdiv i32 %2, 4
  %16 = add nsw i32 %15, -1
  %17 = lshr i32 %16, 1
  %18 = or i32 %17, %16
  %19 = lshr i32 %18, 2
  %20 = or i32 %19, %18
  %21 = lshr i32 %20, 4
  %22 = or i32 %21, %20
  %23 = lshr i32 %22, 8
  %24 = or i32 %23, %22
  %25 = lshr i32 %24, 16
  %26 = or i32 %25, %24
  %27 = add i32 %26, 1
  tail call void @_ZN10dtNodePoolC1Eii(ptr noundef nonnull align 8 dereferenceable(36) %14, i32 noundef %2, i32 noundef %27)
  store ptr %14, ptr %6, align 8
  br label %29

28:                                               ; preds = %8
  tail call void @_ZN10dtNodePool5clearEv(ptr noundef nonnull align 8 dereferenceable(36) %7)
  br label %29

29:                                               ; preds = %.thread, %28
  %30 = getelementptr inbounds i8, ptr %0, i64 80
  %31 = load ptr, ptr %30, align 8
  %.not17 = icmp eq ptr %31, null
  br i1 %.not17, label %32, label %34

32:                                               ; preds = %29
  %33 = tail call noundef ptr @_Z7dtAllocm11dtAllocHint(i64 noundef 40, i32 noundef 0)
  tail call void @_ZN10dtNodePoolC1Eii(ptr noundef nonnull align 8 dereferenceable(36) %33, i32 noundef 64, i32 noundef 32)
  store ptr %33, ptr %30, align 8
  br label %35

34:                                               ; preds = %29
  tail call void @_ZN10dtNodePool5clearEv(ptr noundef nonnull align 8 dereferenceable(36) %31)
  br label %35

35:                                               ; preds = %32, %34
  %36 = getelementptr inbounds i8, ptr %0, i64 96
  %37 = load ptr, ptr %36, align 8
  %.not18 = icmp eq ptr %37, null
  br i1 %.not18, label %.thread20, label %38

38:                                               ; preds = %35
  %39 = getelementptr inbounds i8, ptr %37, i64 8
  %40 = load i32, ptr %39, align 8
  %41 = icmp slt i32 %40, %2
  br i1 %41, label %42, label %45

42:                                               ; preds = %38
  tail call void @_ZN11dtNodeQueueD1Ev(ptr noundef nonnull align 8 dereferenceable(16) %37) #20
  %43 = load ptr, ptr %36, align 8
  tail call void @_Z6dtFreePv(ptr noundef %43)
  store ptr null, ptr %36, align 8
  br label %.thread20

.thread20:                                        ; preds = %35, %42
  %44 = tail call noundef ptr @_Z7dtAllocm11dtAllocHint(i64 noundef 16, i32 noundef 0)
  tail call void @_ZN11dtNodeQueueC1Ei(ptr noundef nonnull align 8 dereferenceable(16) %44, i32 noundef %2)
  store ptr %44, ptr %36, align 8
  br label %47

45:                                               ; preds = %38
  %46 = getelementptr inbounds i8, ptr %37, i64 12
  store i32 0, ptr %46, align 4
  br label %47

47:                                               ; preds = %45, %.thread20, %3
  %.0 = phi i32 [ -2147483640, %3 ], [ 1073741824, %.thread20 ], [ 1073741824, %45 ]
  ret i32 %.0
}